; Function Attrs: mustprogress uwtable
define noundef i32 @_ZN3zmq7dgram_t5xrecvEPNS_5msg_tE(ptr nocapture noundef nonnull readonly align 8 dereferenceable(1848) %this, ptr noundef nonnull %msg_) unnamed_addr #0 align 2 {
entry:
  %call = tail call noundef i32 @_ZN3zmq5msg_t5closeEv(ptr noundef nonnull align 8 dereferenceable(64) %msg_)
  %cmp.not = icmp eq i32 %call, 0
  br i1 %cmp.not, label %do.end, label %if.then

if.then:                                          ; preds = %entry
  %call2 = tail call ptr @__errno_location() #15
  %0 = load i32, ptr %call2, align 4
  %call3 = tail call ptr @strerror(i32 noundef %0) #12
  %1 = load ptr, ptr @stderr, align 8
  %call4 = tail call i32 (ptr, ptr, ...) @fprintf(ptr noundef %1, ptr noundef nonnull @.str.4, ptr noundef %call3, ptr noundef nonnull @.str.2, i32 noundef 107) #11
  %2 = load ptr, ptr @stderr, align 8
  %call5 = tail call i32 @fflush(ptr noundef %2)
  tail call void @_ZN3zmq9zmq_abortEPKc(ptr noundef %call3)
  br label %do.end

do.end:                                           ; preds = %entry, %if.then
  %_pipe = getelementptr inbounds i8, ptr %this, i64 1832
  %3 = load ptr, ptr %_pipe, align 8
  %tobool.not = icmp eq ptr %3, null
  br i1 %tobool.not, label %if.then8, label %lor.lhs.false

lor.lhs.false:                                    ; preds = %do.end
  %call7 = tail call noundef zeroext i1 @_ZN3zmq6pipe_t4readEPNS_5msg_tE(ptr noundef nonnull align 8 dereferenceable(328) %3, ptr noundef nonnull %msg_)
  br i1 %call7, label %return, label %if.then8

if.then8:                                         ; preds = %lor.lhs.false, %do.end
  %call9 = tail call noundef i32 @_ZN3zmq5msg_t4initEv(ptr noundef nonnull align 8 dereferenceable(64) %msg_)
  %cmp11.not = icmp eq i32 %call9, 0
  %.pre = tail call ptr @__errno_location() #15
  br i1 %cmp11.not, label %do.end20, label %if.then13

if.then13:                                        ; preds = %if.then8
  %4 = load i32, ptr %.pre, align 4
  %call16 = tail call ptr @strerror(i32 noundef %4) #12
  %5 = load ptr, ptr @stderr, align 8
  %call17 = tail call i32 (ptr, ptr, ...) @fprintf(ptr noundef %5, ptr noundef nonnull @.str.4, ptr noundef %call16, ptr noundef nonnull @.str.2, i32 noundef 112) #11
  %6 = load ptr, ptr @stderr, align 8
  %call18 = tail call i32 @fflush(ptr noundef %6)
  tail call void @_ZN3zmq9zmq_abortEPKc(ptr noundef %call16)
  br label %do.end20

do.end20:                                         ; preds = %if.then8, %if.then13
  store i32 11, ptr %.pre, align 4
  br label %return

return:                                           ; preds = %lor.lhs.false, %do.end20
  %retval.0 = phi i32 [ -1, %do.end20 ], [ 0, %lor.lhs.false ]
  ret i32 %retval.0
}